(lp0
S''
p1
aS'grass3_img'
p2
aS'grass2_img'
p3
ag3
ag3
aS'water_img'
p4
aS'grass1_img'
p5
ag4
ag3
ag2
ag5
ag5
ag3
ag5
ag5
ag4
ag2
ag2
ag2
ag2
ag2
ag2
ag5
ag2
ag4
ag3
ag5
ag3
ag4
ag2
ag2
ag5
ag2
ag2
ag4
ag3
ag3
ag4
ag5
ag3
ag3
ag2
ag2
ag2
ag2
ag3
ag2
ag5
ag5
ag3
ag4
ag2
ag5
ag4
ag2
ag5
ag4
ag5
ag5
ag4
ag2
ag2
ag5
ag4
ag4
ag5
ag2
ag2
ag2
ag2
ag3
ag2
ag3
ag3
ag3
ag5
ag3
ag2
ag5
ag2
ag5
ag4
ag4
ag2
ag2
ag5
ag5
ag2
ag3
ag3
ag2
ag2
ag5
ag4
ag2
ag3
ag3
ag2
ag3
ag5
ag4
ag2
ag2
ag4
ag5
ag5
ag4
ag5
ag2
ag3
ag3
ag5
ag3
ag2
ag5
ag3
ag5
ag2
ag4
ag3
ag2
ag4
ag2
ag5
ag4
ag5
ag2
ag4
ag3
ag5
ag2
ag2
ag3
ag2
ag2
ag2
ag3
ag4
ag2
ag2
ag2
ag2
ag2
ag3
ag3
ag5
ag4
ag3
ag2
ag2
ag4
ag3
ag5
ag2
ag5
ag5
ag3
ag5
ag5
ag5
ag3
ag2
ag5
ag2
ag3
ag2
ag2
ag3
ag2
ag2
ag2
ag3
ag3
ag4
ag3
ag4
ag2
ag4
ag3
ag2
ag2
ag4
ag5
ag2
ag4
ag2
ag3
ag3
ag2
ag4
ag4
ag5
ag5
ag2
ag2
ag3
ag3
ag2
ag4
ag5
ag2
ag2
ag4
ag2
ag2
ag4
ag4
ag2
ag2
ag2
ag5
ag5
ag2
ag3
ag3
ag5
ag5
ag4
ag2
ag5
ag5
ag4
ag2
ag5
ag5
ag4
ag5
ag2
ag3
ag5
ag3
ag2
ag3
ag4
ag2
ag3
ag2
ag2
ag3
ag2
ag4
ag3
ag2
ag2
ag2
ag3
ag3
ag4
ag2
ag4
ag3
ag4
ag5
ag5
ag2
ag2
ag3
ag2
ag4
ag4
ag2
ag3
ag2
ag2
ag5
ag3
ag2
ag2
ag2
ag2
ag5
ag5
ag2
ag4
ag2
ag2
ag2
ag5
ag5
ag5
ag2
ag5
ag2
ag2
ag3
ag5
ag2
ag4
ag3
ag4
ag2
ag2
ag2
ag5
ag3
ag5
ag5
ag2
ag5
ag2
ag4
ag3
ag3
ag2
ag2
ag3
ag5
ag2
ag3
ag5
ag5
ag2
ag2
ag5
ag3
ag3
ag3
ag5
ag4
ag2
ag2
ag5
ag2
ag3
ag4
ag4
ag5
ag2
ag5
ag2
ag3
ag4
ag5
ag2
ag3
ag3
ag3
ag2
ag2
ag2
ag4
ag2
ag2
ag2
ag4
ag2
ag2
ag4
ag2
ag5
ag2
ag2
ag5
ag2
ag2
ag4
ag2
ag4
ag2
ag2
ag2
ag3
ag2
ag5
ag5
ag4
ag4
ag2
ag4
ag3
ag2
ag2
ag5
ag5
ag2
ag2
ag2
ag3
ag2
ag2
ag2
ag2
ag2
ag2
ag5
ag5
ag2
ag2
ag5
ag2
ag3
ag2
ag2
ag2
ag2
ag4
ag3
ag2
ag2
ag2
ag2
ag3
ag5
ag2
ag3
ag3
ag2
ag2
ag2
ag3
ag3
ag2
ag2
ag2
ag2
ag4
ag4
ag4
ag2
ag4
ag3
ag2
ag5
ag5
ag4
ag2
ag4
ag3
ag4
ag5
ag4
ag3
ag4
ag2
ag2
ag5
ag2
ag2
ag3
ag2
ag5
ag4
ag2
ag2
ag2
ag4
ag2
ag2
ag2
ag4
ag4
ag4
ag2
ag4
ag2
ag4
ag4
ag4
ag2
ag5
ag4
ag5
ag3
ag5
ag4
ag2
ag2
ag4
ag2
ag5
ag4
ag4
ag2
ag4
ag2
ag3
ag5
ag2
ag5
ag4
ag5
ag4
ag4
ag2
ag3
ag5
ag5
ag3
ag5
ag5
ag2
ag4
ag2
ag3
ag2
ag4
ag3
ag2
ag2
ag2
ag3
ag2
ag4
ag3
ag2
ag4
ag2
ag5
ag4
ag2
ag5
ag4
ag5
ag5
ag3
ag2
ag2
ag3
ag2
ag2
ag4
ag2
ag5
ag2
ag2
ag2
ag5
ag4
ag3
ag2
ag3
ag3
ag5
ag4
ag2
ag2
ag5
ag2
ag2
ag5
ag3
ag4
ag2
ag2
ag5
ag2
ag2
ag3
ag4
ag2
ag2
ag4
ag4
ag2
ag2
ag2
ag2
ag2
ag4
ag2
ag5
ag2
ag4
ag2
ag2
ag4
ag2
ag4
ag3
ag2
ag3
ag4
ag3
ag2
ag5
ag4
ag4
ag5
ag2
ag2
ag2
ag2
ag5
ag2
ag3
ag2
ag2
ag5
ag5
ag4
ag2
ag3
ag5
ag4
ag2
ag2
ag4
ag2
ag5
ag3
ag5
ag5
ag5
ag2
ag4
ag3
ag2
ag2
ag4
ag4
ag4
ag2
ag3
ag2
ag2
ag3
ag5
ag2
ag4
ag2
ag4
ag3
ag2
ag5
ag3
ag3
ag2
ag5
ag2
ag2
ag2
ag5
ag2
ag2
ag2
ag5
ag2
ag2
ag2
ag5
ag2
ag2
ag2
ag4
ag3
ag2
ag4
ag3
ag4
ag3
ag2
ag2
ag4
ag2
ag3
ag3
ag4
ag5
ag4
ag3
ag3
ag3
ag2
ag2
ag3
ag4
ag2
ag3
ag4
ag4
ag3
ag2
ag3
ag4
ag3
ag3
ag3
ag5
ag5
ag3
ag4
ag3
ag2
ag2
ag3
ag3
ag5
ag2
ag4
ag2
ag4
ag2
ag2
ag2
ag4
ag3
ag2
ag4
ag3
ag3
ag3
ag5
ag2
ag5
ag5
ag5
ag5
ag4
ag4
ag5
ag2
ag5
ag5
ag3
ag5
ag2
ag5
ag2
ag4
ag2
ag4
ag4
ag4
ag5
ag2
ag2
ag3
ag3
ag2
ag4
ag4
ag3
ag4
ag2
ag2
ag5
ag5
ag2
ag2
ag3
ag2
ag5
ag5
ag4
ag5
ag3
ag2
ag5
ag5
ag5
ag3
ag2
ag3
ag3
ag3
ag5
ag5
ag2
ag4
ag2
ag2
ag5
ag3
ag5
ag4
ag3
ag2
ag5
ag5
ag4
ag2
ag3
ag3
ag2
ag2
ag2
ag2
ag3
ag2
ag3
ag4
ag4
ag2
ag5
ag5
ag2
ag5
ag2
ag3
ag5
ag2
ag2
ag3
ag2
ag3
ag3
ag2
ag2
ag2
ag2
ag2
ag2
ag4
ag3
ag3
ag3
ag2
ag2
ag5
ag5
ag4
ag5
ag2
ag4
ag4
ag4
ag5
ag3
ag3
ag2
ag2
ag3
ag3
ag3
ag4
ag5
ag3
ag4
ag3
ag2
ag2
ag3
ag2
ag4
ag5
ag2
ag4
ag2
ag3
ag2
ag3
ag3
ag4
ag5
ag2
ag2
ag3
ag2
ag4
ag3
ag4
ag2
ag5
ag4
ag4
ag2
ag5
ag3
ag4
ag2
ag3
ag5
ag2
ag5
ag4
ag2
ag5
ag2
ag5
ag3
ag3
ag5
ag4
ag3
ag3
ag2
ag5
ag4
ag4
ag5
ag3
ag5
ag3
ag5
ag2
ag2
ag2
ag2
ag2
ag5
ag5
ag2
ag2
ag4
ag2
ag5
ag2
ag4
ag4
ag2
ag4
a.